; Function Attrs: mustprogress uwtable
define noundef ptr @_ZNK7Imf_3_47Context8channelsEi(ptr noundef nonnull readonly align 8 captures(none) dereferenceable(16) %0, i32 noundef %1) local_unnamed_addr #3 align 2 personality ptr @__gxx_personality_v0 {
  %3 = alloca ptr, align 8
  %4 = alloca %"class.std::__cxx11::basic_stringstream", align 8
  call void @llvm.lifetime.start.p0(i64 8, ptr nonnull %3) #30
  %5 = load ptr, ptr %0, align 8, !tbaa !8
  %6 = load ptr, ptr %5, align 8, !tbaa !3
  %7 = call i32 @exr_get_channels(ptr noundef %6, i32 noundef %1, ptr noundef nonnull %3)
  %.not = icmp eq i32 %7, 0
  br i1 %.not, label %26, label %8

8:                                                ; preds = %2
  call void @_Z13iex_debugTrapv()
  call void @llvm.lifetime.start.p0(i64 392, ptr nonnull %4) #30
  call void @_ZNSt7__cxx1118basic_stringstreamIcSt11char_traitsIcESaIcEEC1Ev(ptr noundef nonnull align 8 dereferenceable(128) %4)
  %9 = getelementptr inbounds nuw i8, ptr %4, i64 16
  %10 = invoke noundef nonnull align 8 dereferenceable(8) ptr @_ZSt16__ostream_insertIcSt11char_traitsIcEERSt13basic_ostreamIT_T0_ES6_PKS3_l(ptr noundef nonnull align 8 dereferenceable(8) %9, ptr noundef nonnull @.str.13, i64 noundef 40)
          to label %_ZStlsISt11char_traitsIcEERSt13basic_ostreamIcT_ES5_PKc.exit unwind label %21

_ZStlsISt11char_traitsIcEERSt13basic_ostreamIcT_ES5_PKc.exit: ; preds = %8
  %11 = invoke noundef nonnull align 8 dereferenceable(8) ptr @_ZNSolsEi(ptr noundef nonnull align 8 dereferenceable(8) %9, i32 noundef %1)
          to label %12 unwind label %21

12:                                               ; preds = %_ZStlsISt11char_traitsIcEERSt13basic_ostreamIcT_ES5_PKc.exit
  %13 = invoke noundef nonnull align 8 dereferenceable(8) ptr @_ZSt16__ostream_insertIcSt11char_traitsIcEERSt13basic_ostreamIT_T0_ES6_PKS3_l(ptr noundef nonnull align 8 dereferenceable(8) %11, ptr noundef nonnull @.str.11, i64 noundef 10)
          to label %_ZStlsISt11char_traitsIcEERSt13basic_ostreamIcT_ES5_PKc.exit6 unwind label %21

_ZStlsISt11char_traitsIcEERSt13basic_ostreamIcT_ES5_PKc.exit6: ; preds = %12
  %14 = invoke noundef ptr @_ZNK7Imf_3_47Context8fileNameEv(ptr noundef nonnull align 8 dereferenceable(16) %0)
          to label %15 unwind label %21

15:                                               ; preds = %_ZStlsISt11char_traitsIcEERSt13basic_ostreamIcT_ES5_PKc.exit6
  %16 = invoke noundef nonnull align 8 dereferenceable(8) ptr @_ZStlsISt11char_traitsIcEERSt13basic_ostreamIcT_ES5_PKc(ptr noundef nonnull align 8 dereferenceable(8) %11, ptr noundef %14)
          to label %17 unwind label %21

17:                                               ; preds = %15
  %18 = invoke noundef nonnull align 8 dereferenceable(8) ptr @_ZSt16__ostream_insertIcSt11char_traitsIcEERSt13basic_ostreamIT_T0_ES6_PKS3_l(ptr noundef nonnull align 8 dereferenceable(8) %16, ptr noundef nonnull @.str.9, i64 noundef 1)
          to label %_ZStlsISt11char_traitsIcEERSt13basic_ostreamIcT_ES5_PKc.exit7 unwind label %21

_ZStlsISt11char_traitsIcEERSt13basic_ostreamIcT_ES5_PKc.exit7: ; preds = %17
  %19 = call ptr @__cxa_allocate_exception(i64 72) #30
  invoke void @_ZN7Iex_3_46ArgExcC1ERNSt7__cxx1118basic_stringstreamIcSt11char_traitsIcESaIcEEE(ptr noundef nonnull align 8 dereferenceable(72) %19, ptr noundef nonnull align 8 dereferenceable(128) %4)
          to label %20 unwind label %23

20:                                               ; preds = %_ZStlsISt11char_traitsIcEERSt13basic_ostreamIcT_ES5_PKc.exit7
  invoke void @__cxa_throw(ptr nonnull %19, ptr nonnull @_ZTIN7Iex_3_46ArgExcE, ptr nonnull @_ZN7Iex_3_46ArgExcD1Ev) #32
          to label %28 unwind label %21

21:                                               ; preds = %17, %12, %8, %20, %15, %_ZStlsISt11char_traitsIcEERSt13basic_ostreamIcT_ES5_PKc.exit6, %_ZStlsISt11char_traitsIcEERSt13basic_ostreamIcT_ES5_PKc.exit
  %22 = landingpad { ptr, i32 }
          cleanup
  br label %25

23:                                               ; preds = %_ZStlsISt11char_traitsIcEERSt13basic_ostreamIcT_ES5_PKc.exit7
  %24 = landingpad { ptr, i32 }
          cleanup
  call void @__cxa_free_exception(ptr nonnull %19) #30
  br label %25

25:                                               ; preds = %23, %21
  %.pn = phi { ptr, i32 } [ %22, %21 ], [ %24, %23 ]
  call void @_ZNSt7__cxx1118basic_stringstreamIcSt11char_traitsIcESaIcEED1Ev(ptr noundef nonnull align 8 dereferenceable(128) %4) #30
  call void @llvm.lifetime.end.p0(i64 392, ptr nonnull %4) #30
  call void @llvm.lifetime.end.p0(i64 8, ptr nonnull %3) #30
  resume { ptr, i32 } %.pn

26:                                               ; preds = %2
  %27 = load ptr, ptr %3, align 8, !tbaa !30
  call void @llvm.lifetime.end.p0(i64 8, ptr nonnull %3) #30
  ret ptr %27

28:                                               ; preds = %20
  unreachable
}